target datalayout = "e-m:e-p270:32:32-p271:32:32-p272:64:64-i64:64-i128:128-f80:128-n8:16:32:64-S128"
target triple = "x86_64-pc-linux-gnu"

%"class.o3dgc::Arithmetic_Codec" = type <{ ptr, ptr, ptr, i32, i32, i32, i32, i32, [4 x i8] }>

@.str.6 = private unnamed_addr constant [21 x i8] c"code buffer overflow\00", align 1
@.str.7 = private unnamed_addr constant [24 x i8] c"invalid to stop encoder\00", align 1

; Function Attrs: inlinehint mustprogress nounwind uwtable
define linkonce_odr hidden void @_ZN5o3dgc16Arithmetic_Codec19renorm_enc_intervalEv(ptr noundef nonnull align 8 dereferenceable(44) %0) #2 comdat align 2 {
  %2 = alloca ptr, align 8
  store ptr %0, ptr %2, align 8
  %3 = load ptr, ptr %2, align 8
  br label %4

4:                                                ; preds = %15, %1
  %5 = getelementptr inbounds nuw %"class.o3dgc::Arithmetic_Codec", ptr %3, i32 0, i32 3
  %6 = load i32, ptr %5, align 8
  %7 = lshr i32 %6, 24
  %8 = trunc i32 %7 to i8
  %9 = getelementptr inbounds nuw %"class.o3dgc::Arithmetic_Codec", ptr %3, i32 0, i32 2
  %10 = load ptr, ptr %9, align 8
  %11 = getelementptr inbounds nuw i8, ptr %10, i32 1
  store ptr %11, ptr %9, align 8
  store i8 %8, ptr %10, align 1
  %12 = getelementptr inbounds nuw %"class.o3dgc::Arithmetic_Codec", ptr %3, i32 0, i32 3
  %13 = load i32, ptr %12, align 8
  %14 = shl i32 %13, 8
  store i32 %14, ptr %12, align 8
  br label %15

15:                                               ; preds = %4
  %16 = getelementptr inbounds nuw %"class.o3dgc::Arithmetic_Codec", ptr %3, i32 0, i32 5
  %17 = load i32, ptr %16, align 8
  %18 = shl i32 %17, 8
  store i32 %18, ptr %16, align 8
  %19 = icmp ult i32 %18, 16777216
  br i1 %19, label %4, label %20, !llvm.loop !5

20:                                               ; preds = %15
  ret void
}

; Function Attrs: inlinehint mustprogress nounwind uwtable
define linkonce_odr hidden void @_ZN5o3dgc16Arithmetic_Codec15propagate_carryEv(ptr noundef nonnull align 8 dereferenceable(44) %0) #2 comdat align 2 {
  %2 = alloca ptr, align 8
  %3 = alloca ptr, align 8
  store ptr %0, ptr %2, align 8
  %4 = load ptr, ptr %2, align 8
  call void @llvm.lifetime.start.p0(i64 8, ptr %3) #12
  %5 = getelementptr inbounds nuw %"class.o3dgc::Arithmetic_Codec", ptr %4, i32 0, i32 2
  %6 = load ptr, ptr %5, align 8
  %7 = getelementptr inbounds i8, ptr %6, i64 -1
  store ptr %7, ptr %3, align 8
  br label %8

8:                                                ; preds = %15, %1
  %9 = load ptr, ptr %3, align 8
  %10 = load i8, ptr %9, align 1
  %11 = zext i8 %10 to i32
  %12 = icmp eq i32 %11, 255
  br i1 %12, label %13, label %18

13:                                               ; preds = %8
  %14 = load ptr, ptr %3, align 8
  store i8 0, ptr %14, align 1
  br label %15

15:                                               ; preds = %13
  %16 = load ptr, ptr %3, align 8
  %17 = getelementptr inbounds i8, ptr %16, i32 -1
  store ptr %17, ptr %3, align 8
  br label %8, !llvm.loop !3

18:                                               ; preds = %8
  %19 = load ptr, ptr %3, align 8
  %20 = load i8, ptr %19, align 1
  %21 = add i8 %20, 1
  store i8 %21, ptr %19, align 1
  call void @llvm.lifetime.end.p0(i64 8, ptr %3) #12
  ret void
}

; Function Attrs: mustprogress uwtable
define hidden noundef i32 @_ZN5o3dgc16Arithmetic_Codec12stop_encoderEv(ptr noundef nonnull align 8 dereferenceable(44) %0) #0 align 2 {
  %2 = alloca ptr, align 8
  %3 = alloca i32, align 4
  %4 = alloca i32, align 4
  store ptr %0, ptr %2, align 8
  %5 = load ptr, ptr %2, align 8
  %6 = getelementptr inbounds nuw %"class.o3dgc::Arithmetic_Codec", ptr %5, i32 0, i32 7
  %7 = load i32, ptr %6, align 8
  %8 = icmp ne i32 %7, 1
  br i1 %8, label %9, label %10

9:                                                ; preds = %1
  call void @_ZN5o3dgcL8AC_ErrorEPKc(ptr noundef @.str.7) #13
  unreachable

10:                                               ; preds = %1
  %11 = getelementptr inbounds nuw %"class.o3dgc::Arithmetic_Codec", ptr %5, i32 0, i32 7
  store i32 0, ptr %11, align 8
  call void @llvm.lifetime.start.p0(i64 4, ptr %3) #12
  %12 = getelementptr inbounds nuw %"class.o3dgc::Arithmetic_Codec", ptr %5, i32 0, i32 3
  %13 = load i32, ptr %12, align 8
  store i32 %13, ptr %3, align 4
  %14 = getelementptr inbounds nuw %"class.o3dgc::Arithmetic_Codec", ptr %5, i32 0, i32 5
  %15 = load i32, ptr %14, align 8
  %16 = icmp ugt i32 %15, 33554432
  br i1 %16, label %17, label %22

17:                                               ; preds = %10
  %18 = getelementptr inbounds nuw %"class.o3dgc::Arithmetic_Codec", ptr %5, i32 0, i32 3
  %19 = load i32, ptr %18, align 8
  %20 = add i32 %19, 16777216
  store i32 %20, ptr %18, align 8
  %21 = getelementptr inbounds nuw %"class.o3dgc::Arithmetic_Codec", ptr %5, i32 0, i32 5
  store i32 8388608, ptr %21, align 8
  br label %27

22:                                               ; preds = %10
  %23 = getelementptr inbounds nuw %"class.o3dgc::Arithmetic_Codec", ptr %5, i32 0, i32 3
  %24 = load i32, ptr %23, align 8
  %25 = add i32 %24, 8388608
  store i32 %25, ptr %23, align 8
  %26 = getelementptr inbounds nuw %"class.o3dgc::Arithmetic_Codec", ptr %5, i32 0, i32 5
  store i32 32768, ptr %26, align 8
  br label %27

27:                                               ; preds = %22, %17
  %28 = load i32, ptr %3, align 4
  %29 = getelementptr inbounds nuw %"class.o3dgc::Arithmetic_Codec", ptr %5, i32 0, i32 3
  %30 = load i32, ptr %29, align 8
  %31 = icmp ugt i32 %28, %30
  br i1 %31, label %32, label %33

32:                                               ; preds = %27
  call void @_ZN5o3dgc16Arithmetic_Codec15propagate_carryEv(ptr noundef nonnull align 8 dereferenceable(44) %5)
  br label %33

33:                                               ; preds = %32, %27
  call void @_ZN5o3dgc16Arithmetic_Codec19renorm_enc_intervalEv(ptr noundef nonnull align 8 dereferenceable(44) %5)
  call void @llvm.lifetime.start.p0(i64 4, ptr %4) #12
  %34 = getelementptr inbounds nuw %"class.o3dgc::Arithmetic_Codec", ptr %5, i32 0, i32 2
  %35 = load ptr, ptr %34, align 8
  %36 = getelementptr inbounds nuw %"class.o3dgc::Arithmetic_Codec", ptr %5, i32 0, i32 0
  %37 = load ptr, ptr %36, align 8
  %38 = ptrtoint ptr %35 to i64
  %39 = ptrtoint ptr %37 to i64
  %40 = sub i64 %38, %39
  %41 = trunc i64 %40 to i32
  store i32 %41, ptr %4, align 4
  %42 = load i32, ptr %4, align 4
  %43 = getelementptr inbounds nuw %"class.o3dgc::Arithmetic_Codec", ptr %5, i32 0, i32 6
  %44 = load i32, ptr %43, align 4
  %45 = icmp ugt i32 %42, %44
  br i1 %45, label %46, label %47

46:                                               ; preds = %33
  call void @_ZN5o3dgcL8AC_ErrorEPKc(ptr noundef @.str.6) #13
  unreachable

47:                                               ; preds = %33
  %48 = load i32, ptr %4, align 4
  call void @llvm.lifetime.end.p0(i64 4, ptr %4) #12
  call void @llvm.lifetime.end.p0(i64 4, ptr %3) #12
  ret i32 %48
}