; Function Attrs: mustprogress uwtable
define hidden noundef i32 @_ZN5o3dgc16Arithmetic_Codec12stop_encoderEv(ptr noundef nonnull align 8 captures(none) dereferenceable(44) %0) local_unnamed_addr #5 align 2 {
  %2 = getelementptr inbounds nuw i8, ptr %0, i64 40
  %3 = load i32, ptr %2, align 8
  %.not = icmp eq i32 %3, 1
  br i1 %.not, label %5, label %4

4:                                                ; preds = %1
  tail call fastcc void @_ZN5o3dgcL8AC_ErrorEPKc(ptr noundef nonnull @.str.7) #16
  unreachable

5:                                                ; preds = %1
  store i32 0, ptr %2, align 8
  %6 = getelementptr inbounds nuw i8, ptr %0, i64 24
  %7 = load i32, ptr %6, align 8
  %8 = getelementptr inbounds nuw i8, ptr %0, i64 32
  %9 = load i32, ptr %8, align 8
  %10 = icmp ugt i32 %9, 33554432
  %storemerge3.v = select i1 %10, i32 16777216, i32 8388608
  %storemerge3 = add i32 %storemerge3.v, %7
  %storemerge = select i1 %10, i32 8388608, i32 32768
  store i32 %storemerge3, ptr %6, align 8
  store i32 %storemerge, ptr %8, align 8
  %11 = icmp ugt i32 %7, %storemerge3
  br i1 %11, label %12, label %20

12:                                               ; preds = %5
  %13 = getelementptr inbounds nuw i8, ptr %0, i64 16
  %14 = load ptr, ptr %13, align 8
  %.05.i = getelementptr inbounds i8, ptr %14, i64 -1
  %15 = load i8, ptr %.05.i, align 1
  %16 = icmp eq i8 %15, -1
  br i1 %16, label %.lr.ph.i, label %_ZN5o3dgc16Arithmetic_Codec15propagate_carryEv.exit

.lr.ph.i:                                         ; preds = %12, %.lr.ph.i
  %.06.i = phi ptr [ %.0.i, %.lr.ph.i ], [ %.05.i, %12 ]
  store i8 0, ptr %.06.i, align 1
  %.0.i = getelementptr inbounds i8, ptr %.06.i, i64 -1
  %17 = load i8, ptr %.0.i, align 1
  %18 = icmp eq i8 %17, -1
  br i1 %18, label %.lr.ph.i, label %_ZN5o3dgc16Arithmetic_Codec15propagate_carryEv.exit, !llvm.loop !3

_ZN5o3dgc16Arithmetic_Codec15propagate_carryEv.exit: ; preds = %.lr.ph.i, %12
  %.0.lcssa.i = phi ptr [ %.05.i, %12 ], [ %.0.i, %.lr.ph.i ]
  %.lcssa.i = phi i8 [ %15, %12 ], [ %17, %.lr.ph.i ]
  %19 = add nuw i8 %.lcssa.i, 1
  store i8 %19, ptr %.0.lcssa.i, align 1
  %.pre.i.pre = load i32, ptr %6, align 8
  br label %20

20:                                               ; preds = %_ZN5o3dgc16Arithmetic_Codec15propagate_carryEv.exit, %5
  %.pre.i = phi i32 [ %.pre.i.pre, %_ZN5o3dgc16Arithmetic_Codec15propagate_carryEv.exit ], [ %storemerge3, %5 ]
  %21 = getelementptr inbounds nuw i8, ptr %0, i64 16
  br label %22

22:                                               ; preds = %22, %20
  %23 = phi i32 [ %29, %22 ], [ %.pre.i, %20 ]
  %24 = lshr i32 %23, 24
  %25 = trunc nuw i32 %24 to i8
  %26 = load ptr, ptr %21, align 8
  %27 = getelementptr inbounds nuw i8, ptr %26, i64 1
  store ptr %27, ptr %21, align 8
  store i8 %25, ptr %26, align 1
  %28 = load i32, ptr %6, align 8
  %29 = shl i32 %28, 8
  store i32 %29, ptr %6, align 8
  %30 = load i32, ptr %8, align 8
  %31 = shl i32 %30, 8
  store i32 %31, ptr %8, align 8
  %32 = icmp ult i32 %31, 16777216
  br i1 %32, label %22, label %_ZN5o3dgc16Arithmetic_Codec19renorm_enc_intervalEv.exit, !llvm.loop !5

_ZN5o3dgc16Arithmetic_Codec19renorm_enc_intervalEv.exit: ; preds = %22
  %33 = load ptr, ptr %21, align 8
  %34 = load ptr, ptr %0, align 8
  %35 = ptrtoint ptr %33 to i64
  %36 = ptrtoint ptr %34 to i64
  %37 = sub i64 %35, %36
  %38 = trunc i64 %37 to i32
  %39 = getelementptr inbounds nuw i8, ptr %0, i64 36
  %40 = load i32, ptr %39, align 4
  %41 = icmp ult i32 %40, %38
  br i1 %41, label %42, label %43

42:                                               ; preds = %_ZN5o3dgc16Arithmetic_Codec19renorm_enc_intervalEv.exit
  tail call fastcc void @_ZN5o3dgcL8AC_ErrorEPKc(ptr noundef nonnull @.str.6) #16
  unreachable

43:                                               ; preds = %_ZN5o3dgc16Arithmetic_Codec19renorm_enc_intervalEv.exit
  ret i32 %38
}